target datalayout = "e-m:e-p270:32:32-p271:32:32-p272:64:64-i64:64-i128:128-f80:128-n8:16:32:64-S128"
target triple = "x86_64-pc-linux-gnu"

%struct.slurm_conf_t = type { i64, ptr, i16, ptr, ptr, ptr, ptr, ptr, i16, ptr, ptr, ptr, ptr, ptr, ptr, ptr, i16, ptr, ptr, ptr, ptr, i16, ptr, ptr, ptr, i64, ptr, ptr, ptr, ptr, i16, ptr, ptr, i16, i32, ptr, i32, ptr, i32, i32, ptr, ptr, i64, i64, ptr, i16, i16, ptr, i32, i32, ptr, i32, ptr, i32, i16, i16, i16, ptr, i16, i16, ptr, ptr, i32, i16, i16, ptr, i32, i16, ptr, ptr, ptr, ptr, i16, ptr, ptr, ptr, ptr, i32, ptr, ptr, ptr, ptr, i16, i16, ptr, i32, i32, i32, i16, i16, ptr, ptr, i16, ptr, ptr, i32, i32, i32, i32, i32, i64, i32, i32, i16, ptr, ptr, i32, ptr, ptr, ptr, i16, i32, ptr, ptr, i16, ptr, ptr, i32, i16, ptr, ptr, ptr, ptr, i32, i32, i16, i16, i32, ptr, i16, ptr, i32, i32, i32, i32, i32, i32, ptr, i16, ptr, ptr, i32, i16, ptr, i32, i16, i16, ptr, ptr, ptr, i16, ptr, ptr, ptr, ptr, i16, i16, ptr, i16, ptr, i16, ptr, i16, ptr, i16, ptr, ptr, ptr, ptr, i16, ptr, ptr, ptr, i32, ptr, i32, ptr, ptr, i16, ptr, ptr, i32, i16, ptr, ptr, i16, i16, ptr, i16, ptr, ptr, ptr, i32, ptr, i16, i16, ptr, ptr, ptr, ptr, ptr, ptr, ptr, ptr, i16, i32, i16, ptr, ptr, ptr, ptr, i32, ptr, ptr, ptr, i16, ptr, ptr, ptr, i16, ptr, i16, ptr, i16, i16, ptr }
%struct.sockaddr_storage = type { i16, [118 x i8], i64 }
%struct.forward = type { %struct.slurm_node_alias_addrs_t, i16, i16, ptr, i32, i16, i16 }
%struct.slurm_node_alias_addrs_t = type { i64, ptr, ptr, i32, ptr }
%struct.slurm_msg = type { %struct.sockaddr_storage, ptr, i32, i32, i32, i8, i32, i8, i32, ptr, ptr, i32, ptr, ptr, i16, i8, i16, i16, %struct.forward, ptr, %struct.sockaddr_storage, ptr }
%struct.persist_conn_t = type { ptr, i32, i32, i8, ptr, ptr, ptr, i64, i16, i32, i16, i8, i32, i32, ptr, i16, ptr, i64, i32, ptr, %struct.slurm_trigger_callbacks_t, i16 }
%struct.slurm_trigger_callbacks_t = type { ptr, ptr, ptr, ptr, ptr }

@slurm_conf = external global %struct.slurm_conf_t, align 8
@.str.10 = private unnamed_addr constant [38 x i8] c"NET: %s: slurm_open_msg_conn(%pA): %m\00", align 1
@__func__.slurm_send_recv_rc_msg_only_one = private unnamed_addr constant [32 x i8] c"slurm_send_recv_rc_msg_only_one\00", align 1
@.str.100 = private unnamed_addr constant [28 x i8] c"%s: closing fd:%d error: %m\00", align 1
@__func__._send_and_recv_msg = private unnamed_addr constant [19 x i8] c"_send_and_recv_msg\00", align 1

; Function Attrs: nounwind uwtable
define dso_local i32 @slurm_send_recv_msg(i32 noundef %0, ptr noundef %1, ptr noundef %2, i32 noundef %3) #0 {
  %5 = alloca i32, align 4
  %6 = alloca i32, align 4
  %7 = alloca ptr, align 8
  %8 = alloca ptr, align 8
  %9 = alloca i32, align 4
  store i32 %0, ptr %6, align 4
  store ptr %1, ptr %7, align 8
  store ptr %2, ptr %8, align 8
  store i32 %3, ptr %9, align 4
  %10 = load ptr, ptr %8, align 8
  call void @slurm_msg_t_init(ptr noundef %10)
  %11 = load ptr, ptr %7, align 8
  %12 = getelementptr inbounds nuw %struct.slurm_msg, ptr %11, i32 0, i32 10
  %13 = load ptr, ptr %12, align 8
  %14 = icmp ne ptr %13, null
  br i1 %14, label %15, label %26

15:                                               ; preds = %4
  %16 = load ptr, ptr %7, align 8
  %17 = getelementptr inbounds nuw %struct.slurm_msg, ptr %16, i32 0, i32 10
  %18 = load ptr, ptr %17, align 8
  %19 = getelementptr inbounds nuw %struct.persist_conn_t, ptr %18, i32 0, i32 9
  %20 = load i32, ptr %19, align 4
  store i32 %20, ptr %6, align 4
  %21 = load ptr, ptr %7, align 8
  %22 = getelementptr inbounds nuw %struct.slurm_msg, ptr %21, i32 0, i32 10
  %23 = load ptr, ptr %22, align 8
  %24 = load ptr, ptr %8, align 8
  %25 = getelementptr inbounds nuw %struct.slurm_msg, ptr %24, i32 0, i32 10
  store ptr %23, ptr %25, align 8
  br label %26

26:                                               ; preds = %15, %4
  %27 = load i32, ptr %6, align 4
  %28 = load ptr, ptr %7, align 8
  %29 = call i32 @slurm_send_node_msg(i32 noundef %27, ptr noundef %28)
  %30 = icmp slt i32 %29, 0
  br i1 %30, label %31, label %32

31:                                               ; preds = %26
  store i32 -1, ptr %5, align 4
  br label %40

32:                                               ; preds = %26
  %33 = load i32, ptr %6, align 4
  %34 = load ptr, ptr %8, align 8
  %35 = load i32, ptr %9, align 4
  %36 = call i32 @slurm_receive_msg(i32 noundef %33, ptr noundef %34, i32 noundef %35)
  %37 = icmp ne i32 %36, 0
  br i1 %37, label %38, label %39

38:                                               ; preds = %32
  store i32 -1, ptr %5, align 4
  br label %40

39:                                               ; preds = %32
  store i32 0, ptr %5, align 4
  br label %40

40:                                               ; preds = %39, %38, %31
  %41 = load i32, ptr %5, align 4
  ret i32 %41
}

; Function Attrs: nounwind uwtable
define internal i32 @_send_and_recv_msg(i32 noundef %0, ptr noundef %1, ptr noundef %2, i32 noundef %3) #0 {
  %5 = alloca i32, align 4
  %6 = alloca ptr, align 8
  %7 = alloca ptr, align 8
  %8 = alloca i32, align 4
  %9 = alloca i32, align 4
  store i32 %0, ptr %5, align 4
  store ptr %1, ptr %6, align 8
  store ptr %2, ptr %7, align 8
  store i32 %3, ptr %8, align 4
  call void @llvm.lifetime.start.p0(i64 4, ptr %9) #12
  %10 = load i32, ptr %5, align 4
  %11 = load ptr, ptr %6, align 8
  %12 = load ptr, ptr %7, align 8
  %13 = load i32, ptr %8, align 4
  %14 = call i32 @slurm_send_recv_msg(i32 noundef %10, ptr noundef %11, ptr noundef %12, i32 noundef %13)
  store i32 %14, ptr %9, align 4
  %15 = load i32, ptr %5, align 4
  %16 = call i32 @close(i32 noundef %15)
  %17 = icmp ne i32 %16, 0
  br i1 %17, label %18, label %21

18:                                               ; preds = %4
  %19 = load i32, ptr %5, align 4
  %20 = call i32 (ptr, ...) @error(ptr noundef @.str.100, ptr noundef @__func__._send_and_recv_msg, i32 noundef %19)
  br label %21

21:                                               ; preds = %18, %4
  %22 = load i32, ptr %9, align 4
  call void @llvm.lifetime.end.p0(i64 4, ptr %9) #12
  ret i32 %22
}

; Function Attrs: nounwind uwtable
define dso_local i32 @slurm_open_msg_conn(ptr noundef %0) #0 {
  %2 = alloca ptr, align 8
  %3 = alloca i32, align 4
  store ptr %0, ptr %2, align 8
  call void @llvm.lifetime.start.p0(i64 4, ptr %3) #12
  %4 = load ptr, ptr %2, align 8
  %5 = call i32 @slurm_open_stream(ptr noundef %4, i1 noundef zeroext false)
  store i32 %5, ptr %3, align 4
  %6 = load i32, ptr %3, align 4
  call void @llvm.lifetime.end.p0(i64 4, ptr %3) #12
  ret i32 %6
}

; Function Attrs: nounwind uwtable
define dso_local i32 @slurm_send_recv_rc_msg_only_one(ptr noundef %0, ptr noundef %1, i32 noundef %2) #0 {
  %4 = alloca i32, align 4
  %5 = alloca ptr, align 8
  %6 = alloca ptr, align 8
  %7 = alloca i32, align 4
  %8 = alloca i32, align 4
  %9 = alloca i32, align 4
  %10 = alloca %struct.slurm_msg, align 8
  %11 = alloca i32, align 4
  store ptr %0, ptr %5, align 8
  store ptr %1, ptr %6, align 8
  store i32 %2, ptr %7, align 4
  call void @llvm.lifetime.start.p0(i64 4, ptr %8) #12
  store i32 -1, ptr %8, align 4
  call void @llvm.lifetime.start.p0(i64 4, ptr %9) #12
  store i32 0, ptr %9, align 4
  call void @llvm.lifetime.start.p0(i64 424, ptr %10) #12
  call void @slurm_msg_t_init(ptr noundef %10)
  %12 = load ptr, ptr %5, align 8
  %13 = getelementptr inbounds nuw %struct.slurm_msg, ptr %12, i32 0, i32 18
  call void @forward_init(ptr noundef %13)
  %14 = load ptr, ptr %5, align 8
  %15 = getelementptr inbounds nuw %struct.slurm_msg, ptr %14, i32 0, i32 21
  store ptr null, ptr %15, align 8
  %16 = load ptr, ptr %5, align 8
  %17 = getelementptr inbounds nuw %struct.slurm_msg, ptr %16, i32 0, i32 19
  store ptr null, ptr %17, align 8
  %18 = load ptr, ptr %5, align 8
  %19 = getelementptr inbounds nuw %struct.slurm_msg, ptr %18, i32 0, i32 0
  %20 = call i32 @slurm_open_msg_conn(ptr noundef %19)
  store i32 %20, ptr %8, align 4
  %21 = icmp slt i32 %20, 0
  br i1 %21, label %22, label %40

22:                                               ; preds = %3
  br label %23

23:                                               ; preds = %22
  %24 = load i64, ptr getelementptr inbounds nuw (%struct.slurm_conf_t, ptr @slurm_conf, i32 0, i32 42), align 8
  %25 = and i64 %24, 1024
  %26 = icmp ne i64 %25, 0
  br i1 %26, label %27, label %37

27:                                               ; preds = %23
  br label %28

28:                                               ; preds = %27
  %29 = call i32 @get_log_level()
  %30 = icmp sge i32 %29, 4
  br i1 %30, label %31, label %34

31:                                               ; preds = %28
  %32 = load ptr, ptr %5, align 8
  %33 = getelementptr inbounds nuw %struct.slurm_msg, ptr %32, i32 0, i32 0
  call void (i32, ptr, ...) @log_var(i32 noundef 4, ptr noundef @.str.10, ptr noundef @__func__.slurm_send_recv_rc_msg_only_one, ptr noundef %33)
  br label %34

34:                                               ; preds = %31, %28
  br label %35

35:                                               ; preds = %34
  br label %36

36:                                               ; preds = %35
  br label %37

37:                                               ; preds = %36, %23
  br label %38

38:                                               ; preds = %37
  br label %39

39:                                               ; preds = %38
  store i32 -1, ptr %4, align 4
  store i32 1, ptr %11, align 4
  br label %70

40:                                               ; preds = %3
  %41 = load i32, ptr %8, align 4
  %42 = load ptr, ptr %5, align 8
  %43 = load i32, ptr %7, align 4
  %44 = call i32 @_send_and_recv_msg(i32 noundef %41, ptr noundef %42, ptr noundef %10, i32 noundef %43)
  %45 = icmp ne i32 %44, 0
  br i1 %45, label %67, label %46

46:                                               ; preds = %40
  %47 = getelementptr inbounds nuw %struct.slurm_msg, ptr %10, i32 0, i32 1
  %48 = load ptr, ptr %47, align 8
  %49 = icmp ne ptr %48, null
  br i1 %49, label %50, label %53

50:                                               ; preds = %46
  %51 = getelementptr inbounds nuw %struct.slurm_msg, ptr %10, i32 0, i32 1
  %52 = load ptr, ptr %51, align 8
  call void @auth_g_destroy(ptr noundef %52)
  br label %53

53:                                               ; preds = %50, %46
  %54 = getelementptr inbounds nuw %struct.slurm_msg, ptr %10, i32 0, i32 16
  %55 = load i16, ptr %54, align 4
  %56 = zext i16 %55 to i32
  %57 = getelementptr inbounds nuw %struct.slurm_msg, ptr %10, i32 0, i32 13
  %58 = load ptr, ptr %57, align 8
  %59 = call i32 @slurm_get_return_code(i32 noundef %56, ptr noundef %58)
  %60 = load ptr, ptr %6, align 8
  store i32 %59, ptr %60, align 4
  %61 = getelementptr inbounds nuw %struct.slurm_msg, ptr %10, i32 0, i32 16
  %62 = load i16, ptr %61, align 4
  %63 = zext i16 %62 to i32
  %64 = getelementptr inbounds nuw %struct.slurm_msg, ptr %10, i32 0, i32 13
  %65 = load ptr, ptr %64, align 8
  %66 = call i32 @slurm_free_msg_data(i32 noundef %63, ptr noundef %65)
  store i32 0, ptr %9, align 4
  br label %68

67:                                               ; preds = %40
  store i32 -1, ptr %9, align 4
  br label %68

68:                                               ; preds = %67, %53
  %69 = load i32, ptr %9, align 4
  store i32 %69, ptr %4, align 4
  store i32 1, ptr %11, align 4
  br label %70

70:                                               ; preds = %68, %39
  call void @llvm.lifetime.end.p0(i64 424, ptr %10) #12
  call void @llvm.lifetime.end.p0(i64 4, ptr %9) #12
  call void @llvm.lifetime.end.p0(i64 4, ptr %8) #12
  %71 = load i32, ptr %4, align 4
  ret i32 %71
}