; Function Attrs: nounwind uwtable
define dso_local range(i32 -1, 1) i32 @slurm_send_recv_rc_msg_only_one(ptr noundef %0, ptr noundef writeonly captures(none) %1, i32 noundef %2) local_unnamed_addr #1 {
  %4 = alloca %struct.slurm_msg, align 8
  call void @llvm.lifetime.start.p0(i64 424, ptr nonnull %4) #19
  call void @slurm_msg_t_init(ptr noundef nonnull %4) #19
  %5 = getelementptr inbounds nuw i8, ptr %0, i64 216
  call void @forward_init(ptr noundef nonnull %5) #19
  %6 = getelementptr inbounds nuw i8, ptr %0, i64 416
  store ptr null, ptr %6, align 8
  %7 = getelementptr inbounds nuw i8, ptr %0, i64 280
  store ptr null, ptr %7, align 8
  %8 = call i32 @slurm_open_stream(ptr noundef %0, i1 noundef zeroext false) #19
  %9 = icmp slt i32 %8, 0
  br i1 %9, label %10, label %17

10:                                               ; preds = %3
  %11 = load i64, ptr getelementptr inbounds nuw (i8, ptr @slurm_conf, i64 320), align 8
  %12 = and i64 %11, 1024
  %.not14 = icmp eq i64 %12, 0
  br i1 %.not14, label %47, label %13

13:                                               ; preds = %10
  %14 = call i32 @get_log_level() #19
  %15 = icmp sgt i32 %14, 3
  br i1 %15, label %16, label %47

16:                                               ; preds = %13
  call void (i32, ptr, ...) @log_var(i32 noundef 4, ptr noundef nonnull @.str.10, ptr noundef nonnull @__func__.slurm_send_recv_rc_msg_only_one, ptr noundef nonnull %0) #19
  br label %47

17:                                               ; preds = %3
  call void @slurm_msg_t_init(ptr noundef nonnull %4) #19
  %18 = getelementptr inbounds nuw i8, ptr %0, i64 176
  %19 = load ptr, ptr %18, align 8
  %.not.i.i = icmp eq ptr %19, null
  br i1 %.not.i.i, label %24, label %20

20:                                               ; preds = %17
  %21 = getelementptr inbounds nuw i8, ptr %19, i64 60
  %22 = load i32, ptr %21, align 4
  %23 = getelementptr inbounds nuw i8, ptr %4, i64 176
  store ptr %19, ptr %23, align 8
  br label %24

24:                                               ; preds = %20, %17
  %.010.i.i = phi i32 [ %22, %20 ], [ %8, %17 ]
  %25 = call i32 @slurm_send_node_msg(i32 noundef %.010.i.i, ptr noundef nonnull %0)
  %26 = icmp slt i32 %25, 0
  br i1 %26, label %slurm_send_recv_msg.exit.i, label %27

27:                                               ; preds = %24
  %28 = call i32 @slurm_receive_msg(i32 noundef %.010.i.i, ptr noundef nonnull %4, i32 noundef %2)
  %.not12.i.i.not = icmp eq i32 %28, 0
  br label %slurm_send_recv_msg.exit.i

slurm_send_recv_msg.exit.i:                       ; preds = %27, %24
  %.0.i.i = phi i1 [ false, %24 ], [ %.not12.i.i.not, %27 ]
  %29 = call i32 @close(i32 noundef range(i32 0, -2147483648) %8) #19
  %.not.i = icmp eq i32 %29, 0
  br i1 %.not.i, label %_send_and_recv_msg.exit, label %30

30:                                               ; preds = %slurm_send_recv_msg.exit.i
  %31 = call i32 (ptr, ...) @error(ptr noundef nonnull @.str.100, ptr noundef nonnull @__func__._send_and_recv_msg, i32 noundef range(i32 0, -2147483648) %8) #19
  br label %_send_and_recv_msg.exit

_send_and_recv_msg.exit:                          ; preds = %slurm_send_recv_msg.exit.i, %30
  br i1 %.0.i.i, label %32, label %47

32:                                               ; preds = %_send_and_recv_msg.exit
  %33 = getelementptr inbounds nuw i8, ptr %4, i64 128
  %34 = load ptr, ptr %33, align 8
  %.not13 = icmp eq ptr %34, null
  br i1 %.not13, label %36, label %35

35:                                               ; preds = %32
  call void @auth_g_destroy(ptr noundef nonnull %34) #19
  br label %36

36:                                               ; preds = %35, %32
  %37 = getelementptr inbounds nuw i8, ptr %4, i64 212
  %38 = load i16, ptr %37, align 4
  %39 = zext i16 %38 to i32
  %40 = getelementptr inbounds nuw i8, ptr %4, i64 200
  %41 = load ptr, ptr %40, align 8
  %42 = call i32 @slurm_get_return_code(i32 noundef %39, ptr noundef %41) #19
  store i32 %42, ptr %1, align 4
  %43 = load i16, ptr %37, align 4
  %44 = zext i16 %43 to i32
  %45 = load ptr, ptr %40, align 8
  %46 = call i32 @slurm_free_msg_data(i32 noundef %44, ptr noundef %45) #19
  br label %47

47:                                               ; preds = %36, %_send_and_recv_msg.exit, %10, %16, %13
  %.010 = phi i32 [ -1, %13 ], [ -1, %16 ], [ -1, %10 ], [ 0, %36 ], [ -1, %_send_and_recv_msg.exit ]
  call void @llvm.lifetime.end.p0(i64 424, ptr nonnull %4) #19
  ret i32 %.010
}